target datalayout = "e-m:e-p270:32:32-p271:32:32-p272:64:64-i64:64-i128:128-f80:128-n8:16:32:64-S128"
target triple = "x86_64-pc-linux-gnu"

; Function Attrs: nounwind uwtable
define internal void @pred8x8l_top_dc_8_c(ptr noundef %0, i32 noundef %1, i32 noundef %2, i64 noundef %3) #1 {
  %5 = alloca ptr, align 8
  %6 = alloca i32, align 4
  %7 = alloca i32, align 4
  %8 = alloca i64, align 8
  %9 = alloca ptr, align 8
  %10 = alloca i32, align 4
  %11 = alloca i32, align 4
  %12 = alloca i32, align 4
  %13 = alloca i32, align 4
  %14 = alloca i32, align 4
  %15 = alloca i32, align 4
  %16 = alloca i32, align 4
  %17 = alloca i32, align 4
  %18 = alloca i32, align 4
  %19 = alloca i32, align 4
  %20 = alloca i32, align 4
  store ptr %0, ptr %5, align 8, !tbaa !12
  store i32 %1, ptr %6, align 4, !tbaa !9
  store i32 %2, ptr %7, align 4, !tbaa !9
  store i64 %3, ptr %8, align 8, !tbaa !14
  call void @llvm.lifetime.start.p0(i64 8, ptr %9) #9
  %21 = load ptr, ptr %5, align 8, !tbaa !12
  store ptr %21, ptr %9, align 8, !tbaa !12
  call void @llvm.lifetime.start.p0(i64 4, ptr %10) #9
  %22 = load i64, ptr %8, align 8, !tbaa !14
  %23 = ashr i64 %22, 0
  %24 = trunc i64 %23 to i32
  store i32 %24, ptr %10, align 4, !tbaa !9
  call void @llvm.lifetime.start.p0(i64 4, ptr %11) #9
  %25 = load i32, ptr %6, align 4, !tbaa !9
  %26 = icmp ne i32 %25, 0
  br i1 %26, label %27, label %36

27:                                               ; preds = %4
  %28 = load ptr, ptr %9, align 8, !tbaa !12
  %29 = load i32, ptr %10, align 4, !tbaa !9
  %30 = mul nsw i32 -1, %29
  %31 = add nsw i32 -1, %30
  %32 = sext i32 %31 to i64
  %33 = getelementptr inbounds i8, ptr %28, i64 %32
  %34 = load i8, ptr %33, align 1, !tbaa !18
  %35 = zext i8 %34 to i32
  br label %45

36:                                               ; preds = %4
  %37 = load ptr, ptr %9, align 8, !tbaa !12
  %38 = load i32, ptr %10, align 4, !tbaa !9
  %39 = mul nsw i32 -1, %38
  %40 = add nsw i32 0, %39
  %41 = sext i32 %40 to i64
  %42 = getelementptr inbounds i8, ptr %37, i64 %41
  %43 = load i8, ptr %42, align 1, !tbaa !18
  %44 = zext i8 %43 to i32
  br label %45

45:                                               ; preds = %36, %27
  %46 = phi i32 [ %35, %27 ], [ %44, %36 ]
  %47 = load ptr, ptr %9, align 8, !tbaa !12
  %48 = load i32, ptr %10, align 4, !tbaa !9
  %49 = mul nsw i32 -1, %48
  %50 = add nsw i32 0, %49
  %51 = sext i32 %50 to i64
  %52 = getelementptr inbounds i8, ptr %47, i64 %51
  %53 = load i8, ptr %52, align 1, !tbaa !18
  %54 = zext i8 %53 to i32
  %55 = mul nsw i32 2, %54
  %56 = add nsw i32 %46, %55
  %57 = load ptr, ptr %9, align 8, !tbaa !12
  %58 = load i32, ptr %10, align 4, !tbaa !9
  %59 = mul nsw i32 -1, %58
  %60 = add nsw i32 1, %59
  %61 = sext i32 %60 to i64
  %62 = getelementptr inbounds i8, ptr %57, i64 %61
  %63 = load i8, ptr %62, align 1, !tbaa !18
  %64 = zext i8 %63 to i32
  %65 = add nsw i32 %56, %64
  %66 = add nsw i32 %65, 2
  %67 = ashr i32 %66, 2
  store i32 %67, ptr %11, align 4, !tbaa !9
  call void @llvm.lifetime.start.p0(i64 4, ptr %12) #9
  %68 = load ptr, ptr %9, align 8, !tbaa !12
  %69 = load i32, ptr %10, align 4, !tbaa !9
  %70 = mul nsw i32 -1, %69
  %71 = add nsw i32 0, %70
  %72 = sext i32 %71 to i64
  %73 = getelementptr inbounds i8, ptr %68, i64 %72
  %74 = load i8, ptr %73, align 1, !tbaa !18
  %75 = zext i8 %74 to i32
  %76 = load ptr, ptr %9, align 8, !tbaa !12
  %77 = load i32, ptr %10, align 4, !tbaa !9
  %78 = mul nsw i32 -1, %77
  %79 = add nsw i32 1, %78
  %80 = sext i32 %79 to i64
  %81 = getelementptr inbounds i8, ptr %76, i64 %80
  %82 = load i8, ptr %81, align 1, !tbaa !18
  %83 = zext i8 %82 to i32
  %84 = mul nsw i32 2, %83
  %85 = add nsw i32 %75, %84
  %86 = load ptr, ptr %9, align 8, !tbaa !12
  %87 = load i32, ptr %10, align 4, !tbaa !9
  %88 = mul nsw i32 -1, %87
  %89 = add nsw i32 2, %88
  %90 = sext i32 %89 to i64
  %91 = getelementptr inbounds i8, ptr %86, i64 %90
  %92 = load i8, ptr %91, align 1, !tbaa !18
  %93 = zext i8 %92 to i32
  %94 = add nsw i32 %85, %93
  %95 = add nsw i32 %94, 2
  %96 = ashr i32 %95, 2
  store i32 %96, ptr %12, align 4, !tbaa !9
  call void @llvm.lifetime.start.p0(i64 4, ptr %13) #9
  %97 = load ptr, ptr %9, align 8, !tbaa !12
  %98 = load i32, ptr %10, align 4, !tbaa !9
  %99 = mul nsw i32 -1, %98
  %100 = add nsw i32 1, %99
  %101 = sext i32 %100 to i64
  %102 = getelementptr inbounds i8, ptr %97, i64 %101
  %103 = load i8, ptr %102, align 1, !tbaa !18
  %104 = zext i8 %103 to i32
  %105 = load ptr, ptr %9, align 8, !tbaa !12
  %106 = load i32, ptr %10, align 4, !tbaa !9
  %107 = mul nsw i32 -1, %106
  %108 = add nsw i32 2, %107
  %109 = sext i32 %108 to i64
  %110 = getelementptr inbounds i8, ptr %105, i64 %109
  %111 = load i8, ptr %110, align 1, !tbaa !18
  %112 = zext i8 %111 to i32
  %113 = mul nsw i32 2, %112
  %114 = add nsw i32 %104, %113
  %115 = load ptr, ptr %9, align 8, !tbaa !12
  %116 = load i32, ptr %10, align 4, !tbaa !9
  %117 = mul nsw i32 -1, %116
  %118 = add nsw i32 3, %117
  %119 = sext i32 %118 to i64
  %120 = getelementptr inbounds i8, ptr %115, i64 %119
  %121 = load i8, ptr %120, align 1, !tbaa !18
  %122 = zext i8 %121 to i32
  %123 = add nsw i32 %114, %122
  %124 = add nsw i32 %123, 2
  %125 = ashr i32 %124, 2
  store i32 %125, ptr %13, align 4, !tbaa !9
  call void @llvm.lifetime.start.p0(i64 4, ptr %14) #9
  %126 = load ptr, ptr %9, align 8, !tbaa !12
  %127 = load i32, ptr %10, align 4, !tbaa !9
  %128 = mul nsw i32 -1, %127
  %129 = add nsw i32 2, %128
  %130 = sext i32 %129 to i64
  %131 = getelementptr inbounds i8, ptr %126, i64 %130
  %132 = load i8, ptr %131, align 1, !tbaa !18
  %133 = zext i8 %132 to i32
  %134 = load ptr, ptr %9, align 8, !tbaa !12
  %135 = load i32, ptr %10, align 4, !tbaa !9
  %136 = mul nsw i32 -1, %135
  %137 = add nsw i32 3, %136
  %138 = sext i32 %137 to i64
  %139 = getelementptr inbounds i8, ptr %134, i64 %138
  %140 = load i8, ptr %139, align 1, !tbaa !18
  %141 = zext i8 %140 to i32
  %142 = mul nsw i32 2, %141
  %143 = add nsw i32 %133, %142
  %144 = load ptr, ptr %9, align 8, !tbaa !12
  %145 = load i32, ptr %10, align 4, !tbaa !9
  %146 = mul nsw i32 -1, %145
  %147 = add nsw i32 4, %146
  %148 = sext i32 %147 to i64
  %149 = getelementptr inbounds i8, ptr %144, i64 %148
  %150 = load i8, ptr %149, align 1, !tbaa !18
  %151 = zext i8 %150 to i32
  %152 = add nsw i32 %143, %151
  %153 = add nsw i32 %152, 2
  %154 = ashr i32 %153, 2
  store i32 %154, ptr %14, align 4, !tbaa !9
  call void @llvm.lifetime.start.p0(i64 4, ptr %15) #9
  %155 = load ptr, ptr %9, align 8, !tbaa !12
  %156 = load i32, ptr %10, align 4, !tbaa !9
  %157 = mul nsw i32 -1, %156
  %158 = add nsw i32 3, %157
  %159 = sext i32 %158 to i64
  %160 = getelementptr inbounds i8, ptr %155, i64 %159
  %161 = load i8, ptr %160, align 1, !tbaa !18
  %162 = zext i8 %161 to i32
  %163 = load ptr, ptr %9, align 8, !tbaa !12
  %164 = load i32, ptr %10, align 4, !tbaa !9
  %165 = mul nsw i32 -1, %164
  %166 = add nsw i32 4, %165
  %167 = sext i32 %166 to i64
  %168 = getelementptr inbounds i8, ptr %163, i64 %167
  %169 = load i8, ptr %168, align 1, !tbaa !18
  %170 = zext i8 %169 to i32
  %171 = mul nsw i32 2, %170
  %172 = add nsw i32 %162, %171
  %173 = load ptr, ptr %9, align 8, !tbaa !12
  %174 = load i32, ptr %10, align 4, !tbaa !9
  %175 = mul nsw i32 -1, %174
  %176 = add nsw i32 5, %175
  %177 = sext i32 %176 to i64
  %178 = getelementptr inbounds i8, ptr %173, i64 %177
  %179 = load i8, ptr %178, align 1, !tbaa !18
  %180 = zext i8 %179 to i32
  %181 = add nsw i32 %172, %180
  %182 = add nsw i32 %181, 2
  %183 = ashr i32 %182, 2
  store i32 %183, ptr %15, align 4, !tbaa !9
  call void @llvm.lifetime.start.p0(i64 4, ptr %16) #9
  %184 = load ptr, ptr %9, align 8, !tbaa !12
  %185 = load i32, ptr %10, align 4, !tbaa !9
  %186 = mul nsw i32 -1, %185
  %187 = add nsw i32 4, %186
  %188 = sext i32 %187 to i64
  %189 = getelementptr inbounds i8, ptr %184, i64 %188
  %190 = load i8, ptr %189, align 1, !tbaa !18
  %191 = zext i8 %190 to i32
  %192 = load ptr, ptr %9, align 8, !tbaa !12
  %193 = load i32, ptr %10, align 4, !tbaa !9
  %194 = mul nsw i32 -1, %193
  %195 = add nsw i32 5, %194
  %196 = sext i32 %195 to i64
  %197 = getelementptr inbounds i8, ptr %192, i64 %196
  %198 = load i8, ptr %197, align 1, !tbaa !18
  %199 = zext i8 %198 to i32
  %200 = mul nsw i32 2, %199
  %201 = add nsw i32 %191, %200
  %202 = load ptr, ptr %9, align 8, !tbaa !12
  %203 = load i32, ptr %10, align 4, !tbaa !9
  %204 = mul nsw i32 -1, %203
  %205 = add nsw i32 6, %204
  %206 = sext i32 %205 to i64
  %207 = getelementptr inbounds i8, ptr %202, i64 %206
  %208 = load i8, ptr %207, align 1, !tbaa !18
  %209 = zext i8 %208 to i32
  %210 = add nsw i32 %201, %209
  %211 = add nsw i32 %210, 2
  %212 = ashr i32 %211, 2
  store i32 %212, ptr %16, align 4, !tbaa !9
  call void @llvm.lifetime.start.p0(i64 4, ptr %17) #9
  %213 = load ptr, ptr %9, align 8, !tbaa !12
  %214 = load i32, ptr %10, align 4, !tbaa !9
  %215 = mul nsw i32 -1, %214
  %216 = add nsw i32 5, %215
  %217 = sext i32 %216 to i64
  %218 = getelementptr inbounds i8, ptr %213, i64 %217
  %219 = load i8, ptr %218, align 1, !tbaa !18
  %220 = zext i8 %219 to i32
  %221 = load ptr, ptr %9, align 8, !tbaa !12
  %222 = load i32, ptr %10, align 4, !tbaa !9
  %223 = mul nsw i32 -1, %222
  %224 = add nsw i32 6, %223
  %225 = sext i32 %224 to i64
  %226 = getelementptr inbounds i8, ptr %221, i64 %225
  %227 = load i8, ptr %226, align 1, !tbaa !18
  %228 = zext i8 %227 to i32
  %229 = mul nsw i32 2, %228
  %230 = add nsw i32 %220, %229
  %231 = load ptr, ptr %9, align 8, !tbaa !12
  %232 = load i32, ptr %10, align 4, !tbaa !9
  %233 = mul nsw i32 -1, %232
  %234 = add nsw i32 7, %233
  %235 = sext i32 %234 to i64
  %236 = getelementptr inbounds i8, ptr %231, i64 %235
  %237 = load i8, ptr %236, align 1, !tbaa !18
  %238 = zext i8 %237 to i32
  %239 = add nsw i32 %230, %238
  %240 = add nsw i32 %239, 2
  %241 = ashr i32 %240, 2
  store i32 %241, ptr %17, align 4, !tbaa !9
  call void @llvm.lifetime.start.p0(i64 4, ptr %18) #9
  %242 = load i32, ptr %7, align 4, !tbaa !9
  %243 = icmp ne i32 %242, 0
  br i1 %243, label %244, label %253

244:                                              ; preds = %45
  %245 = load ptr, ptr %9, align 8, !tbaa !12
  %246 = load i32, ptr %10, align 4, !tbaa !9
  %247 = mul nsw i32 -1, %246
  %248 = add nsw i32 8, %247
  %249 = sext i32 %248 to i64
  %250 = getelementptr inbounds i8, ptr %245, i64 %249
  %251 = load i8, ptr %250, align 1, !tbaa !18
  %252 = zext i8 %251 to i32
  br label %262

253:                                              ; preds = %45
  %254 = load ptr, ptr %9, align 8, !tbaa !12
  %255 = load i32, ptr %10, align 4, !tbaa !9
  %256 = mul nsw i32 -1, %255
  %257 = add nsw i32 7, %256
  %258 = sext i32 %257 to i64
  %259 = getelementptr inbounds i8, ptr %254, i64 %258
  %260 = load i8, ptr %259, align 1, !tbaa !18
  %261 = zext i8 %260 to i32
  br label %262

262:                                              ; preds = %253, %244
  %263 = phi i32 [ %252, %244 ], [ %261, %253 ]
  %264 = load ptr, ptr %9, align 8, !tbaa !12
  %265 = load i32, ptr %10, align 4, !tbaa !9
  %266 = mul nsw i32 -1, %265
  %267 = add nsw i32 7, %266
  %268 = sext i32 %267 to i64
  %269 = getelementptr inbounds i8, ptr %264, i64 %268
  %270 = load i8, ptr %269, align 1, !tbaa !18
  %271 = zext i8 %270 to i32
  %272 = mul nsw i32 2, %271
  %273 = add nsw i32 %263, %272
  %274 = load ptr, ptr %9, align 8, !tbaa !12
  %275 = load i32, ptr %10, align 4, !tbaa !9
  %276 = mul nsw i32 -1, %275
  %277 = add nsw i32 6, %276
  %278 = sext i32 %277 to i64
  %279 = getelementptr inbounds i8, ptr %274, i64 %278
  %280 = load i8, ptr %279, align 1, !tbaa !18
  %281 = zext i8 %280 to i32
  %282 = add nsw i32 %273, %281
  %283 = add nsw i32 %282, 2
  %284 = ashr i32 %283, 2
  store i32 %284, ptr %18, align 4, !tbaa !9
  call void @llvm.lifetime.start.p0(i64 4, ptr %19) #9
  %285 = load i32, ptr %11, align 4, !tbaa !9
  %286 = load i32, ptr %12, align 4, !tbaa !9
  %287 = add nsw i32 %285, %286
  %288 = load i32, ptr %13, align 4, !tbaa !9
  %289 = add nsw i32 %287, %288
  %290 = load i32, ptr %14, align 4, !tbaa !9
  %291 = add nsw i32 %289, %290
  %292 = load i32, ptr %15, align 4, !tbaa !9
  %293 = add nsw i32 %291, %292
  %294 = load i32, ptr %16, align 4, !tbaa !9
  %295 = add nsw i32 %293, %294
  %296 = load i32, ptr %17, align 4, !tbaa !9
  %297 = add nsw i32 %295, %296
  %298 = load i32, ptr %18, align 4, !tbaa !9
  %299 = add nsw i32 %297, %298
  %300 = add nsw i32 %299, 4
  %301 = ashr i32 %300, 3
  %302 = mul i32 %301, 16843009
  store i32 %302, ptr %19, align 4, !tbaa !9
  call void @llvm.lifetime.start.p0(i64 4, ptr %20) #9
  store i32 0, ptr %20, align 4, !tbaa !9
  br label %303

303:                                              ; preds = %317, %262
  %304 = load i32, ptr %20, align 4, !tbaa !9
  %305 = icmp slt i32 %304, 8
  br i1 %305, label %306, label %320

306:                                              ; preds = %303
  %307 = load i32, ptr %19, align 4, !tbaa !9
  %308 = load ptr, ptr %9, align 8, !tbaa !12
  %309 = getelementptr inbounds i32, ptr %308, i64 0
  store i32 %307, ptr %309, align 4, !tbaa !18
  %310 = load i32, ptr %19, align 4, !tbaa !9
  %311 = load ptr, ptr %9, align 8, !tbaa !12
  %312 = getelementptr inbounds i32, ptr %311, i64 1
  store i32 %310, ptr %312, align 4, !tbaa !18
  %313 = load i32, ptr %10, align 4, !tbaa !9
  %314 = load ptr, ptr %9, align 8, !tbaa !12
  %315 = sext i32 %313 to i64
  %316 = getelementptr inbounds i8, ptr %314, i64 %315
  store ptr %316, ptr %9, align 8, !tbaa !12
  br label %317

317:                                              ; preds = %306
  %318 = load i32, ptr %20, align 4, !tbaa !9
  %319 = add nsw i32 %318, 1
  store i32 %319, ptr %20, align 4, !tbaa !9
  br label %303, !llvm.loop !247

320:                                              ; preds = %303
  call void @llvm.lifetime.end.p0(i64 4, ptr %20) #9
  call void @llvm.lifetime.end.p0(i64 4, ptr %19) #9
  call void @llvm.lifetime.end.p0(i64 4, ptr %18) #9
  call void @llvm.lifetime.end.p0(i64 4, ptr %17) #9
  call void @llvm.lifetime.end.p0(i64 4, ptr %16) #9
  call void @llvm.lifetime.end.p0(i64 4, ptr %15) #9
  call void @llvm.lifetime.end.p0(i64 4, ptr %14) #9
  call void @llvm.lifetime.end.p0(i64 4, ptr %13) #9
  call void @llvm.lifetime.end.p0(i64 4, ptr %12) #9
  call void @llvm.lifetime.end.p0(i64 4, ptr %11) #9
  call void @llvm.lifetime.end.p0(i64 4, ptr %10) #9
  call void @llvm.lifetime.end.p0(i64 8, ptr %9) #9
  ret void
}