; Function Attrs: nofree norecurse nosync nounwind memory(argmem: readwrite) uwtable
define internal void @pred8x8l_top_dc_8_c(ptr noundef captures(none) %0, i32 noundef %1, i32 noundef %2, i64 noundef %3) #3 {
  %.not = icmp eq i32 %1, 0
  %5 = xor i64 %3, -1
  %sext = shl i64 %5, 32
  %.neg = mul i64 %3, -4294967296
  %.pn.in = select i1 %.not, i64 %.neg, i64 %sext
  %.pn = ashr exact i64 %.pn.in, 32
  %.in.in = getelementptr inbounds i8, ptr %0, i64 %.pn
  %.in = load i8, ptr %.in.in, align 1, !tbaa !8
  %6 = zext i8 %.in to i32
  %7 = ashr exact i64 %.neg, 32
  %8 = getelementptr inbounds i8, ptr %0, i64 %7
  %9 = load i8, ptr %8, align 1, !tbaa !8
  %10 = zext i8 %9 to i32
  %11 = shl nuw nsw i32 %10, 1
  %12 = shl i64 %3, 32
  %sext72 = sub i64 4294967296, %12
  %13 = ashr exact i64 %sext72, 32
  %14 = getelementptr inbounds i8, ptr %0, i64 %13
  %15 = load i8, ptr %14, align 1, !tbaa !8
  %16 = zext i8 %15 to i32
  %17 = add nuw nsw i32 %16, 2
  %18 = add nuw nsw i32 %17, %6
  %19 = add nuw nsw i32 %18, %11
  %20 = lshr i32 %19, 2
  %21 = shl nuw nsw i32 %16, 1
  %sext73 = sub i64 8589934592, %12
  %22 = ashr exact i64 %sext73, 32
  %23 = getelementptr inbounds i8, ptr %0, i64 %22
  %24 = load i8, ptr %23, align 1, !tbaa !8
  %25 = zext i8 %24 to i32
  %26 = add nuw nsw i32 %25, 2
  %27 = add nuw nsw i32 %26, %10
  %28 = add nuw nsw i32 %27, %21
  %29 = lshr i32 %28, 2
  %30 = shl nuw nsw i32 %25, 1
  %sext74 = sub i64 12884901888, %12
  %31 = ashr exact i64 %sext74, 32
  %32 = getelementptr inbounds i8, ptr %0, i64 %31
  %33 = load i8, ptr %32, align 1, !tbaa !8
  %34 = zext i8 %33 to i32
  %35 = add nuw nsw i32 %17, %30
  %36 = add nuw nsw i32 %35, %34
  %37 = lshr i32 %36, 2
  %38 = shl nuw nsw i32 %34, 1
  %sext75 = sub i64 17179869184, %12
  %39 = ashr exact i64 %sext75, 32
  %40 = getelementptr inbounds i8, ptr %0, i64 %39
  %41 = load i8, ptr %40, align 1, !tbaa !8
  %42 = zext i8 %41 to i32
  %43 = add nuw nsw i32 %26, %38
  %44 = add nuw nsw i32 %43, %42
  %45 = lshr i32 %44, 2
  %46 = shl nuw nsw i32 %42, 1
  %sext76 = sub i64 21474836480, %12
  %47 = ashr exact i64 %sext76, 32
  %48 = getelementptr inbounds i8, ptr %0, i64 %47
  %49 = load i8, ptr %48, align 1, !tbaa !8
  %50 = zext i8 %49 to i32
  %51 = add nuw nsw i32 %34, 2
  %52 = add nuw nsw i32 %51, %46
  %53 = add nuw nsw i32 %52, %50
  %54 = lshr i32 %53, 2
  %55 = shl nuw nsw i32 %50, 1
  %sext77 = sub i64 25769803776, %12
  %56 = ashr exact i64 %sext77, 32
  %57 = getelementptr inbounds i8, ptr %0, i64 %56
  %58 = load i8, ptr %57, align 1, !tbaa !8
  %59 = zext i8 %58 to i32
  %60 = add nuw nsw i32 %42, 2
  %61 = add nuw nsw i32 %60, %55
  %62 = add nuw nsw i32 %61, %59
  %63 = lshr i32 %62, 2
  %64 = shl nuw nsw i32 %59, 1
  %sext78 = sub i64 30064771072, %12
  %65 = ashr exact i64 %sext78, 32
  %66 = getelementptr inbounds i8, ptr %0, i64 %65
  %67 = load i8, ptr %66, align 1, !tbaa !8
  %68 = zext i8 %67 to i32
  %69 = add nuw nsw i32 %50, 2
  %70 = add nuw nsw i32 %69, %64
  %71 = add nuw nsw i32 %70, %68
  %72 = lshr i32 %71, 2
  %.not79 = icmp eq i32 %2, 0
  br i1 %.not79, label %78, label %73

73:                                               ; preds = %4
  %sext82 = sub i64 34359738368, %12
  %74 = ashr exact i64 %sext82, 32
  %75 = getelementptr inbounds i8, ptr %0, i64 %74
  %76 = load i8, ptr %75, align 1, !tbaa !8
  %77 = zext i8 %76 to i32
  br label %78

78:                                               ; preds = %4, %73
  %79 = phi i32 [ %77, %73 ], [ %68, %4 ]
  %80 = shl nuw nsw i32 %68, 1
  %81 = add nuw nsw i32 %59, 2
  %82 = add nuw nsw i32 %81, %80
  %83 = add nuw nsw i32 %82, %79
  %84 = lshr i32 %83, 2
  %85 = add nuw nsw i32 %20, 4
  %86 = add nuw nsw i32 %85, %29
  %87 = add nuw nsw i32 %86, %37
  %88 = add nuw nsw i32 %87, %45
  %89 = add nuw nsw i32 %88, %54
  %90 = add nuw nsw i32 %89, %63
  %91 = add nuw nsw i32 %90, %72
  %92 = add nuw nsw i32 %91, %84
  %93 = lshr i32 %92, 3
  %94 = mul nuw i32 %93, 16843009
  %95 = ashr exact i64 %12, 32
  br label %96

96:                                               ; preds = %78, %96
  %.085 = phi i32 [ 0, %78 ], [ %99, %96 ]
  %.07184 = phi ptr [ %0, %78 ], [ %98, %96 ]
  store i32 %94, ptr %.07184, align 4, !tbaa !8
  %97 = getelementptr inbounds nuw i8, ptr %.07184, i64 4
  store i32 %94, ptr %97, align 4, !tbaa !8
  %98 = getelementptr inbounds i8, ptr %.07184, i64 %95
  %99 = add nuw nsw i32 %.085, 1
  %exitcond.not = icmp eq i32 %99, 8
  br i1 %exitcond.not, label %100, label %96, !llvm.loop !249

100:                                              ; preds = %96
  ret void
}